target datalayout = "e-m:e-p270:32:32-p271:32:32-p272:64:64-i64:64-i128:128-f80:128-n8:16:32:64-S128"
target triple = "x86_64-pc-linux-gnu"

; Function Attrs: inlinehint nounwind uwtable
define internal zeroext i1 @pmix_bfrops_base_tma_check_rank(i32 noundef %0, i32 noundef %1, ptr noundef %2) #1 {
  %4 = alloca i1, align 1
  %5 = alloca i32, align 4
  %6 = alloca i32, align 4
  %7 = alloca ptr, align 8
  store i32 %0, ptr %5, align 4, !tbaa !12
  store i32 %1, ptr %6, align 4, !tbaa !12
  store ptr %2, ptr %7, align 8, !tbaa !8
  %8 = load i32, ptr %5, align 4, !tbaa !12
  %9 = load i32, ptr %6, align 4, !tbaa !12
  %10 = icmp eq i32 %8, %9
  br i1 %10, label %11, label %12

11:                                               ; preds = %3
  store i1 true, ptr %4, align 1
  br label %20

12:                                               ; preds = %3
  %13 = load i32, ptr %5, align 4, !tbaa !12
  %14 = icmp eq i32 -2, %13
  br i1 %14, label %18, label %15

15:                                               ; preds = %12
  %16 = load i32, ptr %6, align 4, !tbaa !12
  %17 = icmp eq i32 -2, %16
  br i1 %17, label %18, label %19

18:                                               ; preds = %15, %12
  store i1 true, ptr %4, align 1
  br label %20

19:                                               ; preds = %15
  store i1 false, ptr %4, align 1
  br label %20

20:                                               ; preds = %19, %18, %11
  %21 = load i1, ptr %4, align 1
  ret i1 %21
}

; Function Attrs: nounwind uwtable
define zeroext i1 @PMIx_Check_rank(i32 noundef %0, i32 noundef %1) #0 {
  %3 = alloca i32, align 4
  %4 = alloca i32, align 4
  store i32 %0, ptr %3, align 4, !tbaa !12
  store i32 %1, ptr %4, align 4, !tbaa !12
  %5 = load i32, ptr %3, align 4, !tbaa !12
  %6 = load i32, ptr %4, align 4, !tbaa !12
  %7 = call zeroext i1 @pmix_bfrops_base_tma_check_rank(i32 noundef %5, i32 noundef %6, ptr noundef null)
  ret i1 %7
}