; Function Attrs: mustprogress nofree norecurse nosync nounwind willreturn memory(none) uwtable
define noundef zeroext i1 @PMIx_Check_rank(i32 noundef %0, i32 noundef %1) local_unnamed_addr #5 {
  %3 = icmp eq i32 %0, %1
  br i1 %3, label %pmix_bfrops_base_tma_check_rank.exit, label %4

4:                                                ; preds = %2
  %5 = icmp eq i32 %0, -2
  %6 = icmp eq i32 %1, -2
  %or.cond.i = or i1 %5, %6
  br label %pmix_bfrops_base_tma_check_rank.exit

pmix_bfrops_base_tma_check_rank.exit:             ; preds = %2, %4
  %.0.i = phi i1 [ true, %2 ], [ %or.cond.i, %4 ]
  ret i1 %.0.i
}